#include <math.h>
#include <stdio.h>
#include <stdlib.h>
#include <string.h>


int main()
{
	int a[100],i=0,j=0,k=0,t1=0,t2=0,sum=0,n;
	scanf("%d",&n);

	for(i=0;i<n;i++)
	{
	scanf("%d",&a[i]);
	}
	
	for(i=n-1;i>=0;i--)
	{
		if(i!=0)
		printf("%d ",a[i]);
		else
		printf("%d",a[i]);
	}

	return 0;
}